target datalayout = "e-m:e-p270:32:32-p271:32:32-p272:64:64-i64:64-i128:128-f80:128-n8:16:32:64-S128"
target triple = "x86_64-pc-linux-gnu"

%struct.v8dwt_local = type { ptr, i32, i32, i32, i32, i32, i32, i32 }
%union.opj_v8_t = type { [8 x float] }
%struct.opj_dwt97_decode_h_job_t = type { %struct.v8dwt_local, i32, i32, ptr, i32 }

; Function Attrs: nounwind uwtable
define internal void @opj_dwt97_decode_h_func(ptr noundef %0, ptr noundef %1) #0 {
  %3 = alloca ptr, align 8
  %4 = alloca ptr, align 8
  %5 = alloca i32, align 4
  %6 = alloca ptr, align 8
  %7 = alloca ptr, align 8
  %8 = alloca i32, align 4
  %9 = alloca i32, align 4
  store ptr %0, ptr %3, align 8, !tbaa !20
  store ptr %1, ptr %4, align 8, !tbaa !164
  call void @llvm.lifetime.start.p0(i64 4, ptr %5) #9
  call void @llvm.lifetime.start.p0(i64 8, ptr %6) #9
  call void @llvm.lifetime.start.p0(i64 8, ptr %7) #9
  call void @llvm.lifetime.start.p0(i64 4, ptr %8) #9
  %10 = load ptr, ptr %3, align 8, !tbaa !20
  store ptr %10, ptr %6, align 8, !tbaa !20
  %11 = load ptr, ptr %6, align 8, !tbaa !20
  %12 = getelementptr inbounds nuw %struct.opj_dwt97_decode_h_job_t, ptr %11, i32 0, i32 2
  %13 = load i32, ptr %12, align 4, !tbaa !149
  store i32 %13, ptr %8, align 4, !tbaa !24
  %14 = load ptr, ptr %6, align 8, !tbaa !20
  %15 = getelementptr inbounds nuw %struct.opj_dwt97_decode_h_job_t, ptr %14, i32 0, i32 3
  %16 = load ptr, ptr %15, align 8, !tbaa !150
  store ptr %16, ptr %7, align 8, !tbaa !112
  store i32 0, ptr %5, align 4, !tbaa !24
  br label %17

17:                                               ; preds = %191, %2
  %18 = load i32, ptr %5, align 4, !tbaa !24
  %19 = add i32 %18, 8
  %20 = load ptr, ptr %6, align 8, !tbaa !20
  %21 = getelementptr inbounds nuw %struct.opj_dwt97_decode_h_job_t, ptr %20, i32 0, i32 4
  %22 = load i32, ptr %21, align 8, !tbaa !151
  %23 = icmp ule i32 %19, %22
  br i1 %23, label %24, label %194

24:                                               ; preds = %17
  call void @llvm.lifetime.start.p0(i64 4, ptr %9) #9
  %25 = load ptr, ptr %6, align 8, !tbaa !20
  %26 = getelementptr inbounds nuw %struct.opj_dwt97_decode_h_job_t, ptr %25, i32 0, i32 0
  %27 = load ptr, ptr %7, align 8, !tbaa !112
  %28 = load ptr, ptr %6, align 8, !tbaa !20
  %29 = getelementptr inbounds nuw %struct.opj_dwt97_decode_h_job_t, ptr %28, i32 0, i32 2
  %30 = load i32, ptr %29, align 4, !tbaa !149
  call void @opj_v8dwt_interleave_h(ptr noundef %26, ptr noundef %27, i32 noundef %30, i32 noundef 8)
  %31 = load ptr, ptr %6, align 8, !tbaa !20
  %32 = getelementptr inbounds nuw %struct.opj_dwt97_decode_h_job_t, ptr %31, i32 0, i32 0
  call void @opj_v8dwt_decode(ptr noundef %32)
  store i32 0, ptr %9, align 4, !tbaa !24
  br label %33

33:                                               ; preds = %103, %24
  %34 = load i32, ptr %9, align 4, !tbaa !24
  %35 = load ptr, ptr %6, align 8, !tbaa !20
  %36 = getelementptr inbounds nuw %struct.opj_dwt97_decode_h_job_t, ptr %35, i32 0, i32 1
  %37 = load i32, ptr %36, align 8, !tbaa !148
  %38 = icmp ult i32 %34, %37
  br i1 %38, label %39, label %106

39:                                               ; preds = %33
  %40 = load ptr, ptr %6, align 8, !tbaa !20
  %41 = getelementptr inbounds nuw %struct.opj_dwt97_decode_h_job_t, ptr %40, i32 0, i32 0
  %42 = getelementptr inbounds nuw %struct.v8dwt_local, ptr %41, i32 0, i32 0
  %43 = load ptr, ptr %42, align 8, !tbaa !139
  %44 = load i32, ptr %9, align 4, !tbaa !24
  %45 = zext i32 %44 to i64
  %46 = getelementptr inbounds nuw %union.opj_v8_t, ptr %43, i64 %45
  %47 = getelementptr inbounds [8 x float], ptr %46, i64 0, i64 0
  %48 = load float, ptr %47, align 4, !tbaa !57
  %49 = load ptr, ptr %7, align 8, !tbaa !112
  %50 = load i32, ptr %9, align 4, !tbaa !24
  %51 = zext i32 %50 to i64
  %52 = getelementptr inbounds nuw float, ptr %49, i64 %51
  store float %48, ptr %52, align 4, !tbaa !135
  %53 = load ptr, ptr %6, align 8, !tbaa !20
  %54 = getelementptr inbounds nuw %struct.opj_dwt97_decode_h_job_t, ptr %53, i32 0, i32 0
  %55 = getelementptr inbounds nuw %struct.v8dwt_local, ptr %54, i32 0, i32 0
  %56 = load ptr, ptr %55, align 8, !tbaa !139
  %57 = load i32, ptr %9, align 4, !tbaa !24
  %58 = zext i32 %57 to i64
  %59 = getelementptr inbounds nuw %union.opj_v8_t, ptr %56, i64 %58
  %60 = getelementptr inbounds [8 x float], ptr %59, i64 0, i64 1
  %61 = load float, ptr %60, align 4, !tbaa !57
  %62 = load ptr, ptr %7, align 8, !tbaa !112
  %63 = load i32, ptr %9, align 4, !tbaa !24
  %64 = zext i32 %63 to i64
  %65 = load i32, ptr %8, align 4, !tbaa !24
  %66 = zext i32 %65 to i64
  %67 = add i64 %64, %66
  %68 = getelementptr inbounds nuw float, ptr %62, i64 %67
  store float %61, ptr %68, align 4, !tbaa !135
  %69 = load ptr, ptr %6, align 8, !tbaa !20
  %70 = getelementptr inbounds nuw %struct.opj_dwt97_decode_h_job_t, ptr %69, i32 0, i32 0
  %71 = getelementptr inbounds nuw %struct.v8dwt_local, ptr %70, i32 0, i32 0
  %72 = load ptr, ptr %71, align 8, !tbaa !139
  %73 = load i32, ptr %9, align 4, !tbaa !24
  %74 = zext i32 %73 to i64
  %75 = getelementptr inbounds nuw %union.opj_v8_t, ptr %72, i64 %74
  %76 = getelementptr inbounds [8 x float], ptr %75, i64 0, i64 2
  %77 = load float, ptr %76, align 4, !tbaa !57
  %78 = load ptr, ptr %7, align 8, !tbaa !112
  %79 = load i32, ptr %9, align 4, !tbaa !24
  %80 = zext i32 %79 to i64
  %81 = load i32, ptr %8, align 4, !tbaa !24
  %82 = zext i32 %81 to i64
  %83 = mul i64 %82, 2
  %84 = add i64 %80, %83
  %85 = getelementptr inbounds nuw float, ptr %78, i64 %84
  store float %77, ptr %85, align 4, !tbaa !135
  %86 = load ptr, ptr %6, align 8, !tbaa !20
  %87 = getelementptr inbounds nuw %struct.opj_dwt97_decode_h_job_t, ptr %86, i32 0, i32 0
  %88 = getelementptr inbounds nuw %struct.v8dwt_local, ptr %87, i32 0, i32 0
  %89 = load ptr, ptr %88, align 8, !tbaa !139
  %90 = load i32, ptr %9, align 4, !tbaa !24
  %91 = zext i32 %90 to i64
  %92 = getelementptr inbounds nuw %union.opj_v8_t, ptr %89, i64 %91
  %93 = getelementptr inbounds [8 x float], ptr %92, i64 0, i64 3
  %94 = load float, ptr %93, align 4, !tbaa !57
  %95 = load ptr, ptr %7, align 8, !tbaa !112
  %96 = load i32, ptr %9, align 4, !tbaa !24
  %97 = zext i32 %96 to i64
  %98 = load i32, ptr %8, align 4, !tbaa !24
  %99 = zext i32 %98 to i64
  %100 = mul i64 %99, 3
  %101 = add i64 %97, %100
  %102 = getelementptr inbounds nuw float, ptr %95, i64 %101
  store float %94, ptr %102, align 4, !tbaa !135
  br label %103

103:                                              ; preds = %39
  %104 = load i32, ptr %9, align 4, !tbaa !24
  %105 = add i32 %104, 1
  store i32 %105, ptr %9, align 4, !tbaa !24
  br label %33, !llvm.loop !254

106:                                              ; preds = %33
  store i32 0, ptr %9, align 4, !tbaa !24
  br label %107

107:                                              ; preds = %182, %106
  %108 = load i32, ptr %9, align 4, !tbaa !24
  %109 = load ptr, ptr %6, align 8, !tbaa !20
  %110 = getelementptr inbounds nuw %struct.opj_dwt97_decode_h_job_t, ptr %109, i32 0, i32 1
  %111 = load i32, ptr %110, align 8, !tbaa !148
  %112 = icmp ult i32 %108, %111
  br i1 %112, label %113, label %185

113:                                              ; preds = %107
  %114 = load ptr, ptr %6, align 8, !tbaa !20
  %115 = getelementptr inbounds nuw %struct.opj_dwt97_decode_h_job_t, ptr %114, i32 0, i32 0
  %116 = getelementptr inbounds nuw %struct.v8dwt_local, ptr %115, i32 0, i32 0
  %117 = load ptr, ptr %116, align 8, !tbaa !139
  %118 = load i32, ptr %9, align 4, !tbaa !24
  %119 = zext i32 %118 to i64
  %120 = getelementptr inbounds nuw %union.opj_v8_t, ptr %117, i64 %119
  %121 = getelementptr inbounds [8 x float], ptr %120, i64 0, i64 4
  %122 = load float, ptr %121, align 4, !tbaa !57
  %123 = load ptr, ptr %7, align 8, !tbaa !112
  %124 = load i32, ptr %9, align 4, !tbaa !24
  %125 = zext i32 %124 to i64
  %126 = load i32, ptr %8, align 4, !tbaa !24
  %127 = zext i32 %126 to i64
  %128 = mul i64 %127, 4
  %129 = add i64 %125, %128
  %130 = getelementptr inbounds nuw float, ptr %123, i64 %129
  store float %122, ptr %130, align 4, !tbaa !135
  %131 = load ptr, ptr %6, align 8, !tbaa !20
  %132 = getelementptr inbounds nuw %struct.opj_dwt97_decode_h_job_t, ptr %131, i32 0, i32 0
  %133 = getelementptr inbounds nuw %struct.v8dwt_local, ptr %132, i32 0, i32 0
  %134 = load ptr, ptr %133, align 8, !tbaa !139
  %135 = load i32, ptr %9, align 4, !tbaa !24
  %136 = zext i32 %135 to i64
  %137 = getelementptr inbounds nuw %union.opj_v8_t, ptr %134, i64 %136
  %138 = getelementptr inbounds [8 x float], ptr %137, i64 0, i64 5
  %139 = load float, ptr %138, align 4, !tbaa !57
  %140 = load ptr, ptr %7, align 8, !tbaa !112
  %141 = load i32, ptr %9, align 4, !tbaa !24
  %142 = zext i32 %141 to i64
  %143 = load i32, ptr %8, align 4, !tbaa !24
  %144 = zext i32 %143 to i64
  %145 = mul i64 %144, 5
  %146 = add i64 %142, %145
  %147 = getelementptr inbounds nuw float, ptr %140, i64 %146
  store float %139, ptr %147, align 4, !tbaa !135
  %148 = load ptr, ptr %6, align 8, !tbaa !20
  %149 = getelementptr inbounds nuw %struct.opj_dwt97_decode_h_job_t, ptr %148, i32 0, i32 0
  %150 = getelementptr inbounds nuw %struct.v8dwt_local, ptr %149, i32 0, i32 0
  %151 = load ptr, ptr %150, align 8, !tbaa !139
  %152 = load i32, ptr %9, align 4, !tbaa !24
  %153 = zext i32 %152 to i64
  %154 = getelementptr inbounds nuw %union.opj_v8_t, ptr %151, i64 %153
  %155 = getelementptr inbounds [8 x float], ptr %154, i64 0, i64 6
  %156 = load float, ptr %155, align 4, !tbaa !57
  %157 = load ptr, ptr %7, align 8, !tbaa !112
  %158 = load i32, ptr %9, align 4, !tbaa !24
  %159 = zext i32 %158 to i64
  %160 = load i32, ptr %8, align 4, !tbaa !24
  %161 = zext i32 %160 to i64
  %162 = mul i64 %161, 6
  %163 = add i64 %159, %162
  %164 = getelementptr inbounds nuw float, ptr %157, i64 %163
  store float %156, ptr %164, align 4, !tbaa !135
  %165 = load ptr, ptr %6, align 8, !tbaa !20
  %166 = getelementptr inbounds nuw %struct.opj_dwt97_decode_h_job_t, ptr %165, i32 0, i32 0
  %167 = getelementptr inbounds nuw %struct.v8dwt_local, ptr %166, i32 0, i32 0
  %168 = load ptr, ptr %167, align 8, !tbaa !139
  %169 = load i32, ptr %9, align 4, !tbaa !24
  %170 = zext i32 %169 to i64
  %171 = getelementptr inbounds nuw %union.opj_v8_t, ptr %168, i64 %170
  %172 = getelementptr inbounds [8 x float], ptr %171, i64 0, i64 7
  %173 = load float, ptr %172, align 4, !tbaa !57
  %174 = load ptr, ptr %7, align 8, !tbaa !112
  %175 = load i32, ptr %9, align 4, !tbaa !24
  %176 = zext i32 %175 to i64
  %177 = load i32, ptr %8, align 4, !tbaa !24
  %178 = zext i32 %177 to i64
  %179 = mul i64 %178, 7
  %180 = add i64 %176, %179
  %181 = getelementptr inbounds nuw float, ptr %174, i64 %180
  store float %173, ptr %181, align 4, !tbaa !135
  br label %182

182:                                              ; preds = %113
  %183 = load i32, ptr %9, align 4, !tbaa !24
  %184 = add i32 %183, 1
  store i32 %184, ptr %9, align 4, !tbaa !24
  br label %107, !llvm.loop !255

185:                                              ; preds = %107
  %186 = load i32, ptr %8, align 4, !tbaa !24
  %187 = mul i32 %186, 8
  %188 = load ptr, ptr %7, align 8, !tbaa !112
  %189 = zext i32 %187 to i64
  %190 = getelementptr inbounds nuw float, ptr %188, i64 %189
  store ptr %190, ptr %7, align 8, !tbaa !112
  call void @llvm.lifetime.end.p0(i64 4, ptr %9) #9
  br label %191

191:                                              ; preds = %185
  %192 = load i32, ptr %5, align 4, !tbaa !24
  %193 = add i32 %192, 8
  store i32 %193, ptr %5, align 4, !tbaa !24
  br label %17, !llvm.loop !256

194:                                              ; preds = %17
  %195 = load ptr, ptr %6, align 8, !tbaa !20
  %196 = getelementptr inbounds nuw %struct.opj_dwt97_decode_h_job_t, ptr %195, i32 0, i32 0
  %197 = getelementptr inbounds nuw %struct.v8dwt_local, ptr %196, i32 0, i32 0
  %198 = load ptr, ptr %197, align 8, !tbaa !139
  call void @opj_aligned_free(ptr noundef %198)
  %199 = load ptr, ptr %6, align 8, !tbaa !20
  call void @opj_free(ptr noundef %199)
  call void @llvm.lifetime.end.p0(i64 4, ptr %8) #9
  call void @llvm.lifetime.end.p0(i64 8, ptr %7) #9
  call void @llvm.lifetime.end.p0(i64 8, ptr %6) #9
  call void @llvm.lifetime.end.p0(i64 4, ptr %5) #9
  ret void
}