; Function Attrs: nounwind uwtable
define internal void @opj_dwt97_decode_h_func(ptr noundef %0, ptr readnone captures(none) %1) #0 {
  %3 = getelementptr inbounds nuw i8, ptr %0, i64 44
  %4 = getelementptr inbounds nuw i8, ptr %0, i64 56
  %5 = load i32, ptr %4, align 8, !tbaa !224
  %.not69 = icmp ult i32 %5, 8
  br i1 %.not69, label %._crit_edge73, label %.lr.ph72

.lr.ph72:                                         ; preds = %2
  %6 = getelementptr inbounds nuw i8, ptr %0, i64 48
  %7 = load ptr, ptr %6, align 8, !tbaa !223
  %8 = load i32, ptr %3, align 4, !tbaa !222
  %9 = getelementptr inbounds nuw i8, ptr %0, i64 40
  %10 = zext i32 %8 to i64
  %.idx64 = shl nuw nsw i64 %10, 3
  %.idx65 = mul nuw nsw i64 %10, 12
  %.idx = shl nuw nsw i64 %10, 4
  %.idx61 = mul nuw nsw i64 %10, 20
  %.idx62 = mul nuw nsw i64 %10, 24
  %.idx63 = mul nuw nsw i64 %10, 28
  %11 = shl i32 %8, 3
  %12 = zext i32 %11 to i64
  br label %13

13:                                               ; preds = %.lr.ph72, %._crit_edge
  %14 = phi i32 [ 8, %.lr.ph72 ], [ %52, %._crit_edge ]
  %.05970 = phi ptr [ %7, %.lr.ph72 ], [ %51, %._crit_edge ]
  %15 = load i32, ptr %3, align 4, !tbaa !222
  tail call fastcc void @opj_v8dwt_interleave_h(ptr noundef nonnull %0, ptr noundef %.05970, i32 noundef %15, i32 noundef 8)
  tail call fastcc void @opj_v8dwt_decode(ptr noundef nonnull %0)
  %16 = load i32, ptr %9, align 8, !tbaa !221
  %.not74 = icmp eq i32 %16, 0
  br i1 %.not74, label %._crit_edge, label %.lr.ph

.lr.ph:                                           ; preds = %13
  %17 = load ptr, ptr %0, align 8, !tbaa !211
  %18 = getelementptr inbounds nuw i8, ptr %.05970, i64 %.idx64
  %19 = getelementptr inbounds nuw i8, ptr %.05970, i64 %.idx65
  %wide.trip.count = zext i32 %16 to i64
  br label %25

.lr.ph68:                                         ; preds = %25
  %20 = load ptr, ptr %0, align 8, !tbaa !211
  %21 = getelementptr inbounds nuw i8, ptr %.05970, i64 %.idx
  %22 = getelementptr inbounds nuw i8, ptr %.05970, i64 %.idx61
  %23 = getelementptr inbounds nuw i8, ptr %.05970, i64 %.idx62
  %24 = getelementptr inbounds nuw i8, ptr %.05970, i64 %.idx63
  %wide.trip.count80 = zext i32 %16 to i64
  br label %38

25:                                               ; preds = %.lr.ph, %25
  %indvars.iv = phi i64 [ 0, %.lr.ph ], [ %indvars.iv.next, %25 ]
  %26 = getelementptr inbounds nuw %union.opj_v8_t, ptr %17, i64 %indvars.iv
  %27 = load float, ptr %26, align 4, !tbaa !57
  %28 = getelementptr inbounds nuw float, ptr %.05970, i64 %indvars.iv
  store float %27, ptr %28, align 4, !tbaa !162
  %29 = getelementptr inbounds nuw %union.opj_v8_t, ptr %17, i64 %indvars.iv, i32 0, i64 1
  %30 = load float, ptr %29, align 4, !tbaa !57
  %31 = getelementptr inbounds nuw float, ptr %28, i64 %10
  store float %30, ptr %31, align 4, !tbaa !162
  %32 = getelementptr inbounds nuw %union.opj_v8_t, ptr %17, i64 %indvars.iv, i32 0, i64 2
  %33 = load float, ptr %32, align 4, !tbaa !57
  %34 = getelementptr inbounds nuw float, ptr %18, i64 %indvars.iv
  store float %33, ptr %34, align 4, !tbaa !162
  %35 = getelementptr inbounds nuw %union.opj_v8_t, ptr %17, i64 %indvars.iv, i32 0, i64 3
  %36 = load float, ptr %35, align 4, !tbaa !57
  %37 = getelementptr inbounds nuw float, ptr %19, i64 %indvars.iv
  store float %36, ptr %37, align 4, !tbaa !162
  %indvars.iv.next = add nuw nsw i64 %indvars.iv, 1
  %exitcond.not = icmp eq i64 %indvars.iv.next, %wide.trip.count
  br i1 %exitcond.not, label %.lr.ph68, label %25, !llvm.loop !300

38:                                               ; preds = %.lr.ph68, %38
  %indvars.iv77 = phi i64 [ 0, %.lr.ph68 ], [ %indvars.iv.next78, %38 ]
  %39 = getelementptr inbounds nuw %union.opj_v8_t, ptr %20, i64 %indvars.iv77, i32 0, i64 4
  %40 = load float, ptr %39, align 4, !tbaa !57
  %41 = getelementptr inbounds nuw float, ptr %21, i64 %indvars.iv77
  store float %40, ptr %41, align 4, !tbaa !162
  %42 = getelementptr inbounds nuw %union.opj_v8_t, ptr %20, i64 %indvars.iv77, i32 0, i64 5
  %43 = load float, ptr %42, align 4, !tbaa !57
  %44 = getelementptr inbounds nuw float, ptr %22, i64 %indvars.iv77
  store float %43, ptr %44, align 4, !tbaa !162
  %45 = getelementptr inbounds nuw %union.opj_v8_t, ptr %20, i64 %indvars.iv77, i32 0, i64 6
  %46 = load float, ptr %45, align 4, !tbaa !57
  %47 = getelementptr inbounds nuw float, ptr %23, i64 %indvars.iv77
  store float %46, ptr %47, align 4, !tbaa !162
  %48 = getelementptr inbounds nuw %union.opj_v8_t, ptr %20, i64 %indvars.iv77, i32 0, i64 7
  %49 = load float, ptr %48, align 4, !tbaa !57
  %50 = getelementptr inbounds nuw float, ptr %24, i64 %indvars.iv77
  store float %49, ptr %50, align 4, !tbaa !162
  %indvars.iv.next78 = add nuw nsw i64 %indvars.iv77, 1
  %exitcond81.not = icmp eq i64 %indvars.iv.next78, %wide.trip.count80
  br i1 %exitcond81.not, label %._crit_edge, label %38, !llvm.loop !301

._crit_edge:                                      ; preds = %38, %13
  %51 = getelementptr inbounds nuw float, ptr %.05970, i64 %12
  %52 = add i32 %14, 8
  %53 = load i32, ptr %4, align 8, !tbaa !224
  %.not = icmp ugt i32 %52, %53
  br i1 %.not, label %._crit_edge73, label %13, !llvm.loop !302

._crit_edge73:                                    ; preds = %._crit_edge, %2
  %54 = load ptr, ptr %0, align 8, !tbaa !211
  tail call void @opj_aligned_free(ptr noundef %54) #16
  tail call void @opj_free(ptr noundef nonnull %0) #16
  ret void
}